target datalayout = "e-m:e-p270:32:32-p271:32:32-p272:64:64-i64:64-i128:128-f80:128-n8:16:32:64-S128"
target triple = "x86_64-pc-linux-gnu"

%struct.dt_pthread_mutex_t = type { %union.pthread_mutex_t }
%union.pthread_mutex_t = type { %struct.__pthread_mutex_s }
%struct.__pthread_mutex_s = type { i32, i32, i32, i32, i32, i16, i16, %struct.__pthread_internal_list }
%struct.__pthread_internal_list = type { ptr, ptr }
%struct.dt_iop_lut3d_params_t = type { [512 x i8], i32, i32, i32, [12288 x i8], [128 x i8] }
%struct.dt_dev_histogram_stats_t = type { i32, i64, i32, i32 }
%struct.dt_iop_module_t = type { i32, ptr, ptr, ptr, ptr, ptr, ptr, ptr, ptr, ptr, ptr, ptr, ptr, ptr, ptr, ptr, ptr, ptr, ptr, ptr, ptr, ptr, ptr, ptr, ptr, ptr, ptr, ptr, ptr, ptr, ptr, ptr, ptr, ptr, ptr, ptr, ptr, ptr, ptr, ptr, ptr, ptr, ptr, ptr, ptr, ptr, ptr, ptr, ptr, ptr, ptr, ptr, ptr, ptr, ptr, ptr, ptr, [20 x i8], i32, i32, i32, i32, i32, i32, i32, [8 x i8], [4 x float], [4 x float], [4 x float], [4 x float], [4 x float], [4 x float], ptr, %struct.dt_dev_histogram_stats_t, [4 x i32], i32, i32, ptr, i32, i32, ptr, ptr, i32, ptr, %struct.dt_pthread_mutex_t, ptr, ptr, ptr, ptr, %struct.anon.1, ptr, ptr, ptr, ptr, ptr, ptr, ptr, i32, ptr, ptr, ptr, ptr, ptr, ptr, ptr, i32, ptr, i32, [128 x i8], i32, ptr, ptr, i32, [12 x i8] }
%struct.anon.1 = type { %struct.anon.2, %struct.anon.3 }
%struct.anon.2 = type { ptr, ptr }
%struct.anon.3 = type { ptr, i32 }
%struct._GtkTreeIter = type { i32, ptr, ptr, ptr }
%struct.dt_iop_lut3d_gui_data_t = type { ptr, ptr, ptr, ptr, ptr, ptr, ptr, i64 }

@.str.79 = private unnamed_addr constant [5 x i8] c".gmz\00", align 1
@.str.80 = private unnamed_addr constant [32 x i8] c"plugins/darkroom/lut3d/def_path\00", align 1
@.str.129 = private unnamed_addr constant [5 x i8] c".GMZ\00", align 1

; Function Attrs: nounwind uwtable
define internal void @get_selected_lutname(ptr noundef %0, ptr noundef %1) #0 {
  %3 = alloca ptr, align 8
  %4 = alloca ptr, align 8
  %5 = alloca %struct._GtkTreeIter, align 8
  %6 = alloca ptr, align 8
  %7 = alloca ptr, align 8
  %8 = alloca ptr, align 8
  store ptr %0, ptr %3, align 8, !tbaa !166
  store ptr %1, ptr %4, align 8, !tbaa !41
  call void @llvm.lifetime.start.p0(i64 32, ptr %5) #13
  call void @llvm.lifetime.start.p0(i64 8, ptr %6) #13
  %9 = load ptr, ptr %3, align 8, !tbaa !166
  %10 = getelementptr inbounds nuw %struct.dt_iop_lut3d_gui_data_t, ptr %9, i32 0, i32 5
  %11 = load ptr, ptr %10, align 8, !tbaa !168
  %12 = call ptr @gtk_tree_view_get_selection(ptr noundef %11)
  store ptr %12, ptr %6, align 8, !tbaa !172
  call void @llvm.lifetime.start.p0(i64 8, ptr %7) #13
  %13 = load ptr, ptr %3, align 8, !tbaa !166
  %14 = getelementptr inbounds nuw %struct.dt_iop_lut3d_gui_data_t, ptr %13, i32 0, i32 5
  %15 = load ptr, ptr %14, align 8, !tbaa !168
  %16 = call ptr @gtk_tree_view_get_model(ptr noundef %15)
  store ptr %16, ptr %7, align 8, !tbaa !170
  %17 = load ptr, ptr %6, align 8, !tbaa !172
  %18 = call i32 @gtk_tree_selection_get_selected(ptr noundef %17, ptr noundef %7, ptr noundef %5)
  %19 = icmp ne i32 %18, 0
  br i1 %19, label %20, label %26

20:                                               ; preds = %2
  call void @llvm.lifetime.start.p0(i64 8, ptr %8) #13
  %21 = load ptr, ptr %7, align 8, !tbaa !170
  call void (ptr, ptr, ...) @gtk_tree_model_get(ptr noundef %21, ptr noundef %5, i32 noundef 0, ptr noundef %8, i32 noundef -1)
  %22 = load ptr, ptr %4, align 8, !tbaa !41
  %23 = load ptr, ptr %8, align 8, !tbaa !41
  %24 = call i64 @g_strlcpy(ptr noundef %22, ptr noundef %23, i64 noundef 128)
  %25 = load ptr, ptr %8, align 8, !tbaa !41
  call void @g_free(ptr noundef %25)
  call void @llvm.lifetime.end.p0(i64 8, ptr %8) #13
  br label %29

26:                                               ; preds = %2
  %27 = load ptr, ptr %4, align 8, !tbaa !41
  %28 = getelementptr inbounds i8, ptr %27, i64 0
  store i8 0, ptr %28, align 1, !tbaa !47
  br label %29

29:                                               ; preds = %26, %20
  call void @llvm.lifetime.end.p0(i64 8, ptr %7) #13
  call void @llvm.lifetime.end.p0(i64 8, ptr %6) #13
  call void @llvm.lifetime.end.p0(i64 32, ptr %5) #13
  ret void
}

; Function Attrs: nounwind uwtable
define internal void @get_compressed_clut(ptr noundef %0, i32 noundef %1) #0 {
  %3 = alloca ptr, align 8
  %4 = alloca i32, align 4
  %5 = alloca ptr, align 8
  %6 = alloca ptr, align 8
  %7 = alloca i32, align 4
  %8 = alloca ptr, align 8
  %9 = alloca ptr, align 8
  %10 = alloca i32, align 4
  store ptr %0, ptr %3, align 8, !tbaa !6
  store i32 %1, ptr %4, align 4, !tbaa !16
  call void @llvm.lifetime.start.p0(i64 8, ptr %5) #13
  %11 = load ptr, ptr %3, align 8, !tbaa !6
  %12 = getelementptr inbounds nuw %struct.dt_iop_module_t, ptr %11, i32 0, i32 83
  %13 = load ptr, ptr %12, align 16, !tbaa !178
  store ptr %13, ptr %5, align 8, !tbaa !166
  call void @llvm.lifetime.start.p0(i64 8, ptr %6) #13
  %14 = load ptr, ptr %3, align 8, !tbaa !6
  %15 = getelementptr inbounds nuw %struct.dt_iop_module_t, ptr %14, i32 0, i32 80
  %16 = load ptr, ptr %15, align 8, !tbaa !179
  store ptr %16, ptr %6, align 8, !tbaa !43
  call void @llvm.lifetime.start.p0(i64 4, ptr %7) #13
  store i32 0, ptr %7, align 4, !tbaa !16
  call void @llvm.lifetime.start.p0(i64 8, ptr %8) #13
  %17 = call ptr @dt_conf_get_string(ptr noundef @.str.80)
  store ptr %17, ptr %8, align 8, !tbaa !41
  %18 = load ptr, ptr %6, align 8, !tbaa !43
  %19 = getelementptr inbounds nuw %struct.dt_iop_lut3d_params_t, ptr %18, i32 0, i32 0
  %20 = getelementptr inbounds [512 x i8], ptr %19, i64 0, i64 0
  %21 = load i8, ptr %20, align 4, !tbaa !47
  %22 = sext i8 %21 to i32
  %23 = icmp ne i32 %22, 0
  br i1 %23, label %24, label %111

24:                                               ; preds = %2
  %25 = load ptr, ptr %8, align 8, !tbaa !41
  %26 = getelementptr inbounds i8, ptr %25, i64 0
  %27 = load i8, ptr %26, align 1, !tbaa !47
  %28 = sext i8 %27 to i32
  %29 = icmp ne i32 %28, 0
  br i1 %29, label %30, label %111

30:                                               ; preds = %24
  %31 = load ptr, ptr %6, align 8, !tbaa !43
  %32 = getelementptr inbounds nuw %struct.dt_iop_lut3d_params_t, ptr %31, i32 0, i32 0
  %33 = getelementptr inbounds [512 x i8], ptr %32, i64 0, i64 0
  %34 = call i32 @g_str_has_suffix(ptr noundef %33, ptr noundef @.str.79)
  %35 = icmp ne i32 %34, 0
  br i1 %35, label %42, label %36

36:                                               ; preds = %30
  %37 = load ptr, ptr %6, align 8, !tbaa !43
  %38 = getelementptr inbounds nuw %struct.dt_iop_lut3d_params_t, ptr %37, i32 0, i32 0
  %39 = getelementptr inbounds [512 x i8], ptr %38, i64 0, i64 0
  %40 = call i32 @g_str_has_suffix(ptr noundef %39, ptr noundef @.str.129)
  %41 = icmp ne i32 %40, 0
  br i1 %41, label %42, label %110

42:                                               ; preds = %36, %30
  call void @llvm.lifetime.start.p0(i64 8, ptr %9) #13
  %43 = load ptr, ptr %8, align 8, !tbaa !41
  %44 = load ptr, ptr %6, align 8, !tbaa !43
  %45 = getelementptr inbounds nuw %struct.dt_iop_lut3d_params_t, ptr %44, i32 0, i32 0
  %46 = getelementptr inbounds [512 x i8], ptr %45, i64 0, i64 0
  %47 = call noalias ptr (ptr, ...) @g_build_filename(ptr noundef %43, ptr noundef %46, ptr noundef null)
  store ptr %47, ptr %9, align 8, !tbaa !41
  call void @llvm.lifetime.start.p0(i64 4, ptr %10) #13
  %48 = load ptr, ptr %6, align 8, !tbaa !43
  %49 = getelementptr inbounds nuw %struct.dt_iop_lut3d_params_t, ptr %48, i32 0, i32 3
  %50 = load ptr, ptr %6, align 8, !tbaa !43
  %51 = getelementptr inbounds nuw %struct.dt_iop_lut3d_params_t, ptr %50, i32 0, i32 4
  %52 = getelementptr inbounds [12288 x i8], ptr %51, i64 0, i64 0
  %53 = load ptr, ptr %9, align 8, !tbaa !41
  %54 = load ptr, ptr %5, align 8, !tbaa !166
  %55 = load ptr, ptr %6, align 8, !tbaa !43
  %56 = getelementptr inbounds nuw %struct.dt_iop_lut3d_params_t, ptr %55, i32 0, i32 5
  %57 = getelementptr inbounds [128 x i8], ptr %56, i64 0, i64 0
  %58 = load i32, ptr %4, align 4, !tbaa !16
  %59 = call i32 @lut3d_read_gmz(ptr noundef %49, ptr noundef %52, ptr noundef %53, ptr noundef %7, ptr noundef %54, ptr noundef %57, i32 noundef %58)
  store i32 %59, ptr %10, align 4, !tbaa !16
  %60 = load i32, ptr %10, align 4, !tbaa !16
  %61 = icmp ne i32 %60, 0
  br i1 %61, label %62, label %72

62:                                               ; preds = %42
  %63 = load i32, ptr %4, align 4, !tbaa !16
  %64 = icmp ne i32 %63, 0
  br i1 %64, label %71, label %65

65:                                               ; preds = %62
  %66 = load ptr, ptr %5, align 8, !tbaa !166
  %67 = load ptr, ptr %6, align 8, !tbaa !43
  %68 = getelementptr inbounds nuw %struct.dt_iop_lut3d_params_t, ptr %67, i32 0, i32 5
  %69 = getelementptr inbounds [128 x i8], ptr %68, i64 0, i64 0
  %70 = call i32 @select_lutname_in_list(ptr noundef %66, ptr noundef %69)
  br label %71

71:                                               ; preds = %65, %62
  br label %108

72:                                               ; preds = %42
  %73 = load i32, ptr %7, align 4, !tbaa !16
  %74 = icmp ne i32 %73, 0
  br i1 %74, label %75, label %82

75:                                               ; preds = %72
  %76 = load ptr, ptr %5, align 8, !tbaa !166
  %77 = call i32 @select_lutname_in_list(ptr noundef %76, ptr noundef null)
  %78 = load ptr, ptr %5, align 8, !tbaa !166
  %79 = load ptr, ptr %6, align 8, !tbaa !43
  %80 = getelementptr inbounds nuw %struct.dt_iop_lut3d_params_t, ptr %79, i32 0, i32 5
  %81 = getelementptr inbounds [128 x i8], ptr %80, i64 0, i64 0
  call void @get_selected_lutname(ptr noundef %78, ptr noundef %81)
  br label %107

82:                                               ; preds = %72
  %83 = load ptr, ptr %6, align 8, !tbaa !43
  %84 = getelementptr inbounds nuw %struct.dt_iop_lut3d_params_t, ptr %83, i32 0, i32 5
  %85 = getelementptr inbounds [128 x i8], ptr %84, i64 0, i64 0
  %86 = load i8, ptr %85, align 4, !tbaa !47
  %87 = icmp ne i8 %86, 0
  br i1 %87, label %88, label %106

88:                                               ; preds = %82
  %89 = load ptr, ptr %5, align 8, !tbaa !166
  %90 = load ptr, ptr %6, align 8, !tbaa !43
  %91 = getelementptr inbounds nuw %struct.dt_iop_lut3d_params_t, ptr %90, i32 0, i32 5
  %92 = getelementptr inbounds [128 x i8], ptr %91, i64 0, i64 0
  %93 = call i32 @select_lutname_in_list(ptr noundef %89, ptr noundef %92)
  %94 = icmp ne i32 %93, 0
  br i1 %94, label %105, label %95

95:                                               ; preds = %88
  %96 = load ptr, ptr %5, align 8, !tbaa !166
  %97 = load ptr, ptr %6, align 8, !tbaa !43
  %98 = getelementptr inbounds nuw %struct.dt_iop_lut3d_params_t, ptr %97, i32 0, i32 5
  %99 = getelementptr inbounds [128 x i8], ptr %98, i64 0, i64 0
  call void @lut3d_add_lutname_to_list(ptr noundef %96, ptr noundef %99)
  %100 = load ptr, ptr %5, align 8, !tbaa !166
  %101 = load ptr, ptr %6, align 8, !tbaa !43
  %102 = getelementptr inbounds nuw %struct.dt_iop_lut3d_params_t, ptr %101, i32 0, i32 5
  %103 = getelementptr inbounds [128 x i8], ptr %102, i64 0, i64 0
  %104 = call i32 @select_lutname_in_list(ptr noundef %100, ptr noundef %103)
  br label %105

105:                                              ; preds = %95, %88
  br label %106

106:                                              ; preds = %105, %82
  br label %107

107:                                              ; preds = %106, %75
  br label %108

108:                                              ; preds = %107, %71
  %109 = load ptr, ptr %9, align 8, !tbaa !41
  call void @g_free(ptr noundef %109)
  call void @llvm.lifetime.end.p0(i64 4, ptr %10) #13
  call void @llvm.lifetime.end.p0(i64 8, ptr %9) #13
  br label %110

110:                                              ; preds = %108, %36
  br label %111

111:                                              ; preds = %110, %24, %2
  %112 = load ptr, ptr %8, align 8, !tbaa !41
  call void @g_free(ptr noundef %112)
  call void @llvm.lifetime.end.p0(i64 8, ptr %8) #13
  call void @llvm.lifetime.end.p0(i64 4, ptr %7) #13
  call void @llvm.lifetime.end.p0(i64 8, ptr %6) #13
  call void @llvm.lifetime.end.p0(i64 8, ptr %5) #13
  ret void
}