; Function Attrs: nounwind uwtable
define internal fastcc void @get_compressed_clut(ptr %.680.val, ptr %.704.val, i32 noundef range(i32 0, 2) %0) unnamed_addr #1 {
  %2 = alloca %struct._GtkTreeIter, align 8
  %3 = alloca ptr, align 8
  %4 = alloca ptr, align 8
  %5 = alloca %struct._GtkTreeIter, align 8
  %6 = alloca i32, align 4
  call void @llvm.lifetime.start.p0(i64 4, ptr nonnull %6) #25
  store i32 0, ptr %6, align 4, !tbaa !17
  %7 = tail call ptr @dt_conf_get_string(ptr noundef nonnull @.str.80) #25
  %8 = load i8, ptr %.680.val, align 4, !tbaa !73
  %.not = icmp eq i8 %8, 0
  br i1 %.not, label %52, label %9

9:                                                ; preds = %1
  %10 = load i8, ptr %7, align 1, !tbaa !73
  %.not29 = icmp eq i8 %10, 0
  br i1 %.not29, label %52, label %11

11:                                               ; preds = %9
  %12 = tail call i32 @g_str_has_suffix(ptr noundef nonnull %.680.val, ptr noundef nonnull @.str.79) #25
  %.not30 = icmp eq i32 %12, 0
  br i1 %.not30, label %13, label %15

13:                                               ; preds = %11
  %14 = tail call i32 @g_str_has_suffix(ptr noundef nonnull %.680.val, ptr noundef nonnull @.str.129) #25
  %.not31 = icmp eq i32 %14, 0
  br i1 %.not31, label %52, label %15

15:                                               ; preds = %13, %11
  %16 = tail call noalias ptr (ptr, ...) @g_build_filename(ptr noundef nonnull %7, ptr noundef nonnull %.680.val, ptr noundef null) #25
  %17 = getelementptr inbounds nuw i8, ptr %.680.val, i64 520
  %18 = getelementptr inbounds nuw i8, ptr %.680.val, i64 524
  %19 = getelementptr inbounds nuw i8, ptr %.680.val, i64 12812
  %20 = call i32 @lut3d_read_gmz(ptr noundef nonnull %17, ptr noundef nonnull %18, ptr noundef %16, ptr noundef nonnull %6, ptr noundef %.704.val, ptr noundef nonnull %19, i32 noundef %0) #25
  %.not32 = icmp eq i32 %20, 0
  br i1 %.not32, label %24, label %21

21:                                               ; preds = %15
  %.not36 = icmp eq i32 %0, 0
  br i1 %.not36, label %22, label %51

22:                                               ; preds = %21
  %23 = call fastcc i32 @select_lutname_in_list(ptr noundef %.704.val, ptr noundef nonnull %19)
  br label %51

24:                                               ; preds = %15
  %25 = load i32, ptr %6, align 4, !tbaa !17
  %.not33 = icmp eq i32 %25, 0
  br i1 %.not33, label %45, label %26

26:                                               ; preds = %24
  call void @llvm.lifetime.start.p0(i64 32, ptr nonnull %5) #25
  %27 = getelementptr inbounds nuw i8, ptr %.704.val, i64 40
  %28 = load ptr, ptr %27, align 8, !tbaa !133
  %29 = call ptr @gtk_tree_view_get_selection(ptr noundef %28) #25
  %30 = load ptr, ptr %27, align 8, !tbaa !133
  %31 = call ptr @gtk_tree_view_get_model(ptr noundef %30) #25
  %32 = call i32 @gtk_tree_model_iter_nth_child(ptr noundef %31, ptr noundef nonnull %5, ptr noundef null, i32 noundef 0) #25
  %.not20.i = icmp eq i32 %32, 0
  br i1 %.not20.i, label %select_lutname_in_list.exit, label %33

33:                                               ; preds = %26
  call void @gtk_tree_selection_select_iter(ptr noundef %29, ptr noundef nonnull %5) #25
  br label %select_lutname_in_list.exit

select_lutname_in_list.exit:                      ; preds = %26, %33
  call void @llvm.lifetime.end.p0(i64 32, ptr nonnull %5) #25
  call void @llvm.lifetime.start.p0(i64 32, ptr nonnull %2) #25
  %34 = load ptr, ptr %27, align 8, !tbaa !133
  %35 = call ptr @gtk_tree_view_get_selection(ptr noundef %34) #25
  call void @llvm.lifetime.start.p0(i64 8, ptr nonnull %3) #25
  %36 = load ptr, ptr %27, align 8, !tbaa !133
  %37 = call ptr @gtk_tree_view_get_model(ptr noundef %36) #25
  store ptr %37, ptr %3, align 8, !tbaa !148
  %38 = call i32 @gtk_tree_selection_get_selected(ptr noundef %35, ptr noundef nonnull %3, ptr noundef nonnull %2) #25
  %.not.i = icmp eq i32 %38, 0
  br i1 %.not.i, label %44, label %39

39:                                               ; preds = %select_lutname_in_list.exit
  call void @llvm.lifetime.start.p0(i64 8, ptr nonnull %4) #25
  %40 = load ptr, ptr %3, align 8, !tbaa !148
  call void (ptr, ptr, ...) @gtk_tree_model_get(ptr noundef %40, ptr noundef nonnull %2, i32 noundef 0, ptr noundef nonnull %4, i32 noundef -1) #25
  %41 = load ptr, ptr %4, align 8, !tbaa !74
  %42 = call i64 @g_strlcpy(ptr noundef nonnull %19, ptr noundef %41, i64 noundef 128) #25
  %43 = load ptr, ptr %4, align 8, !tbaa !74
  call void @g_free(ptr noundef %43) #25
  call void @llvm.lifetime.end.p0(i64 8, ptr nonnull %4) #25
  br label %get_selected_lutname.exit

44:                                               ; preds = %select_lutname_in_list.exit
  store i8 0, ptr %19, align 1, !tbaa !73
  br label %get_selected_lutname.exit

get_selected_lutname.exit:                        ; preds = %39, %44
  call void @llvm.lifetime.end.p0(i64 8, ptr nonnull %3) #25
  call void @llvm.lifetime.end.p0(i64 32, ptr nonnull %2) #25
  br label %51

45:                                               ; preds = %24
  %46 = load i8, ptr %19, align 4, !tbaa !73
  %.not34 = icmp eq i8 %46, 0
  br i1 %.not34, label %51, label %47

47:                                               ; preds = %45
  %48 = call fastcc i32 @select_lutname_in_list(ptr noundef %.704.val, ptr noundef nonnull %19)
  %.not35 = icmp eq i32 %48, 0
  br i1 %.not35, label %49, label %51

49:                                               ; preds = %47
  call void @lut3d_add_lutname_to_list(ptr noundef %.704.val, ptr noundef nonnull %19)
  %50 = call fastcc i32 @select_lutname_in_list(ptr noundef %.704.val, ptr noundef nonnull %19)
  br label %51

51:                                               ; preds = %get_selected_lutname.exit, %47, %49, %45, %21, %22
  call void @g_free(ptr noundef %16) #25
  br label %52

52:                                               ; preds = %13, %51, %9, %1
  call void @g_free(ptr noundef %7) #25
  call void @llvm.lifetime.end.p0(i64 4, ptr nonnull %6) #25
  ret void
}